target datalayout = "e-m:e-p270:32:32-p271:32:32-p272:64:64-i64:64-i128:128-f80:128-n8:16:32:64-S128"
target triple = "x86_64-pc-linux-gnu"

%struct.expert_field = type { i32, i32 }

@ei_gsm_a_rr_data_not_dissected = internal global %struct.expert_field zeroinitializer, align 4
@hf_gsm_a_rr_nln_pch = internal global i32 0, align 4
@hf_gsm_a_rr_nln_status_pch = internal global i32 0, align 4
@hf_gsm_a_rr_group_channel_description = internal global i32 0, align 4
@hf_gsm_a_rr_hopping_case = internal global i32 0, align 4
@hf_gsm_a_rr_hopping_flag = internal global i32 0, align 4
@hf_gsm_a_rr_nln_pch_present = internal global i32 0, align 4
@hf_gsm_a_call_prio1 = internal global i32 0, align 4
@hf_gsm_a_call_prio2 = internal global i32 0, align 4
@hf_gsm_a_rr_group_call_information = internal global i32 0, align 4
@hf_gsm_a_rr_packet_page_indication_1 = internal global i32 0, align 4
@hf_gsm_a_rr_packet_page_indication_2 = internal global i32 0, align 4
@hf_gsm_a_call_prio = external global i32, align 4
@.str.1824 = private unnamed_addr constant [23 x i8] c" for Mobile Identity 1\00", align 1
@.str.1825 = private unnamed_addr constant [23 x i8] c" for Mobile Identity 2\00", align 1
@.str.1826 = private unnamed_addr constant [42 x i8] c"Group Call Information: Data(Not decoded)\00", align 1

; Function Attrs: null_pointer_is_valid sspstrong uwtable
define internal zeroext i1 @gsm_rr_csn_flag(ptr noundef %0, ptr noundef %1, i32 noundef %2, i32 noundef %3) #1 {
  %5 = alloca ptr, align 8
  %6 = alloca ptr, align 8
  %7 = alloca i32, align 4
  %8 = alloca i32, align 4
  %9 = alloca i8, align 1
  %10 = alloca i8, align 1
  store ptr %0, ptr %5, align 8
  store ptr %1, ptr %6, align 8
  store i32 %2, ptr %7, align 4
  store i32 %3, ptr %8, align 4
  call void @llvm.lifetime.start.p0(i64 1, ptr %9) #11
  %11 = load i32, ptr %7, align 4
  %12 = srem i32 %11, 8
  %13 = ashr i32 128, %12
  %14 = trunc i32 %13 to i8
  store i8 %14, ptr %9, align 1
  call void @llvm.lifetime.start.p0(i64 1, ptr %10) #11
  %15 = load ptr, ptr %5, align 8
  %16 = load i32, ptr %7, align 4
  %17 = ashr i32 %16, 3
  %18 = call zeroext i8 @tvb_get_uint8(ptr noundef %15, i32 noundef %17)
  store i8 %18, ptr %10, align 1
  %19 = load ptr, ptr %6, align 8
  %20 = load i32, ptr %8, align 4
  %21 = load ptr, ptr %5, align 8
  %22 = load i32, ptr %7, align 4
  %23 = call ptr @proto_tree_add_bits_item(ptr noundef %19, i32 noundef %20, ptr noundef %21, i32 noundef %22, i32 noundef 1, i32 noundef 0)
  %24 = load i8, ptr %10, align 1
  %25 = zext i8 %24 to i32
  %26 = load i8, ptr %9, align 1
  %27 = zext i8 %26 to i32
  %28 = and i32 %25, %27
  %29 = icmp ne i32 %28, 0
  call void @llvm.lifetime.end.p0(i64 1, ptr %10) #11
  call void @llvm.lifetime.end.p0(i64 1, ptr %9) #11
  ret i1 %29
}

; Function Attrs: null_pointer_is_valid sspstrong uwtable
define internal zeroext i16 @de_rr_p1_rest_oct(ptr noundef %0, ptr noundef %1, ptr noundef %2, i32 noundef %3, i32 noundef %4, ptr noundef %5, i32 noundef %6) #1 {
  %8 = alloca ptr, align 8
  %9 = alloca ptr, align 8
  %10 = alloca ptr, align 8
  %11 = alloca i32, align 4
  %12 = alloca i32, align 4
  %13 = alloca ptr, align 8
  %14 = alloca i32, align 4
  %15 = alloca ptr, align 8
  %16 = alloca i32, align 4
  %17 = alloca i32, align 4
  %18 = alloca i32, align 4
  %19 = alloca i32, align 4
  %20 = alloca i8, align 1
  %21 = alloca i16, align 2
  store ptr %0, ptr %8, align 8
  store ptr %1, ptr %9, align 8
  store ptr %2, ptr %10, align 8
  store i32 %3, ptr %11, align 4
  store i32 %4, ptr %12, align 4
  store ptr %5, ptr %13, align 8
  store i32 %6, ptr %14, align 4
  call void @llvm.lifetime.start.p0(i64 8, ptr %15) #11
  call void @llvm.lifetime.start.p0(i64 4, ptr %16) #11
  call void @llvm.lifetime.start.p0(i64 4, ptr %17) #11
  call void @llvm.lifetime.start.p0(i64 4, ptr %18) #11
  call void @llvm.lifetime.start.p0(i64 4, ptr %19) #11
  call void @llvm.lifetime.start.p0(i64 1, ptr %20) #11
  %22 = load ptr, ptr %8, align 8
  %23 = call i32 @tvb_reported_length(ptr noundef %22)
  %24 = trunc i32 %23 to i8
  store i8 %24, ptr %20, align 1
  call void @llvm.lifetime.start.p0(i64 2, ptr %21) #11
  %25 = load i8, ptr %20, align 1
  %26 = zext i8 %25 to i32
  %27 = shl i32 %26, 3
  %28 = trunc i32 %27 to i16
  store i16 %28, ptr %21, align 2
  %29 = load i32, ptr %11, align 4
  store i32 %29, ptr %16, align 4
  %30 = load i32, ptr %16, align 4
  %31 = shl i32 %30, 3
  store i32 %31, ptr %18, align 4
  %32 = load ptr, ptr %8, align 8
  %33 = load ptr, ptr %9, align 8
  %34 = load i16, ptr %21, align 2
  %35 = zext i16 %34 to i32
  %36 = load i32, ptr %18, align 4
  %37 = add i32 %36, 1
  store i32 %37, ptr %18, align 4
  %38 = load i32, ptr @hf_gsm_a_rr_nln_pch_present, align 4
  %39 = call zeroext i1 @gsm_rr_csn_HL_flag(ptr noundef %32, ptr noundef %33, i32 noundef %35, i32 noundef %36, i32 noundef %38)
  br i1 %39, label %40, label %55

40:                                               ; preds = %7
  %41 = load ptr, ptr %9, align 8
  %42 = load i32, ptr @hf_gsm_a_rr_nln_pch, align 4
  %43 = load ptr, ptr %8, align 8
  %44 = load i32, ptr %18, align 4
  %45 = call ptr @proto_tree_add_bits_item(ptr noundef %41, i32 noundef %42, ptr noundef %43, i32 noundef %44, i32 noundef 2, i32 noundef 0)
  %46 = load i32, ptr %18, align 4
  %47 = add i32 %46, 2
  store i32 %47, ptr %18, align 4
  %48 = load ptr, ptr %9, align 8
  %49 = load i32, ptr @hf_gsm_a_rr_nln_status_pch, align 4
  %50 = load ptr, ptr %8, align 8
  %51 = load i32, ptr %18, align 4
  %52 = call ptr @proto_tree_add_bits_item(ptr noundef %48, i32 noundef %49, ptr noundef %50, i32 noundef %51, i32 noundef 1, i32 noundef 0)
  %53 = load i32, ptr %18, align 4
  %54 = add i32 %53, 1
  store i32 %54, ptr %18, align 4
  br label %55

55:                                               ; preds = %40, %7
  %56 = load ptr, ptr %8, align 8
  %57 = load ptr, ptr %9, align 8
  %58 = load i16, ptr %21, align 2
  %59 = zext i16 %58 to i32
  %60 = load i32, ptr %18, align 4
  %61 = add i32 %60, 1
  store i32 %61, ptr %18, align 4
  %62 = load i32, ptr @hf_gsm_a_call_prio1, align 4
  %63 = call zeroext i1 @gsm_rr_csn_HL_flag(ptr noundef %56, ptr noundef %57, i32 noundef %59, i32 noundef %60, i32 noundef %62)
  br i1 %63, label %64, label %73

64:                                               ; preds = %55
  %65 = load ptr, ptr %9, align 8
  %66 = load i32, ptr @hf_gsm_a_call_prio, align 4
  %67 = load ptr, ptr %8, align 8
  %68 = load i32, ptr %18, align 4
  %69 = call ptr @proto_tree_add_bits_item(ptr noundef %65, i32 noundef %66, ptr noundef %67, i32 noundef %68, i32 noundef 3, i32 noundef 0)
  store ptr %69, ptr %15, align 8
  %70 = load i32, ptr %18, align 4
  %71 = add i32 %70, 3
  store i32 %71, ptr %18, align 4
  %72 = load ptr, ptr %15, align 8
  call void (ptr, ptr, ...) @proto_item_append_text(ptr noundef %72, ptr noundef @.str.1824)
  br label %73

73:                                               ; preds = %64, %55
  %74 = load ptr, ptr %8, align 8
  %75 = load ptr, ptr %9, align 8
  %76 = load i16, ptr %21, align 2
  %77 = zext i16 %76 to i32
  %78 = load i32, ptr %18, align 4
  %79 = add i32 %78, 1
  store i32 %79, ptr %18, align 4
  %80 = load i32, ptr @hf_gsm_a_call_prio2, align 4
  %81 = call zeroext i1 @gsm_rr_csn_HL_flag(ptr noundef %74, ptr noundef %75, i32 noundef %77, i32 noundef %78, i32 noundef %80)
  br i1 %81, label %82, label %91

82:                                               ; preds = %73
  %83 = load ptr, ptr %9, align 8
  %84 = load i32, ptr @hf_gsm_a_call_prio, align 4
  %85 = load ptr, ptr %8, align 8
  %86 = load i32, ptr %18, align 4
  %87 = call ptr @proto_tree_add_bits_item(ptr noundef %83, i32 noundef %84, ptr noundef %85, i32 noundef %86, i32 noundef 3, i32 noundef 0)
  store ptr %87, ptr %15, align 8
  %88 = load i32, ptr %18, align 4
  %89 = add i32 %88, 3
  store i32 %89, ptr %18, align 4
  %90 = load ptr, ptr %15, align 8
  call void (ptr, ptr, ...) @proto_item_append_text(ptr noundef %90, ptr noundef @.str.1825)
  br label %91

91:                                               ; preds = %82, %73
  %92 = load ptr, ptr %8, align 8
  %93 = load ptr, ptr %9, align 8
  %94 = load i16, ptr %21, align 2
  %95 = zext i16 %94 to i32
  %96 = load i32, ptr %18, align 4
  %97 = add i32 %96, 1
  store i32 %97, ptr %18, align 4
  %98 = load i32, ptr @hf_gsm_a_rr_group_call_information, align 4
  %99 = call zeroext i1 @gsm_rr_csn_HL_flag(ptr noundef %92, ptr noundef %93, i32 noundef %95, i32 noundef %96, i32 noundef %98)
  br i1 %99, label %100, label %152

100:                                              ; preds = %91
  %101 = load i32, ptr %18, align 4
  store i32 %101, ptr %19, align 4
  %102 = load i32, ptr %18, align 4
  %103 = add i32 %102, 36
  store i32 %103, ptr %18, align 4
  %104 = load ptr, ptr %8, align 8
  %105 = load ptr, ptr %9, align 8
  %106 = load i32, ptr %18, align 4
  %107 = add i32 %106, 1
  store i32 %107, ptr %18, align 4
  %108 = load i32, ptr @hf_gsm_a_rr_group_channel_description, align 4
  %109 = call zeroext i1 @gsm_rr_csn_flag(ptr noundef %104, ptr noundef %105, i32 noundef %106, i32 noundef %108)
  br i1 %109, label %110, label %141

110:                                              ; preds = %100
  %111 = load i32, ptr %18, align 4
  %112 = add i32 %111, 24
  store i32 %112, ptr %18, align 4
  %113 = load ptr, ptr %8, align 8
  %114 = load ptr, ptr %9, align 8
  %115 = load i32, ptr %18, align 4
  %116 = add i32 %115, 1
  store i32 %116, ptr %18, align 4
  %117 = load i32, ptr @hf_gsm_a_rr_hopping_case, align 4
  %118 = call zeroext i1 @gsm_rr_csn_flag(ptr noundef %113, ptr noundef %114, i32 noundef %115, i32 noundef %117)
  br i1 %118, label %119, label %140

119:                                              ; preds = %110
  %120 = load ptr, ptr %8, align 8
  %121 = load ptr, ptr %9, align 8
  %122 = load i32, ptr %18, align 4
  %123 = add i32 %122, 1
  store i32 %123, ptr %18, align 4
  %124 = load i32, ptr @hf_gsm_a_rr_hopping_flag, align 4
  %125 = call zeroext i1 @gsm_rr_csn_flag(ptr noundef %120, ptr noundef %121, i32 noundef %122, i32 noundef %124)
  br i1 %125, label %126, label %129

126:                                              ; preds = %119
  %127 = load i32, ptr %18, align 4
  %128 = add i32 %127, 64
  store i32 %128, ptr %18, align 4
  br label %139

129:                                              ; preds = %119
  %130 = load ptr, ptr %8, align 8
  %131 = load i32, ptr %18, align 4
  %132 = call zeroext i8 @tvb_get_bits8(ptr noundef %130, i32 noundef %131, i32 noundef 8)
  %133 = zext i8 %132 to i32
  store i32 %133, ptr %17, align 4
  %134 = load i32, ptr %17, align 4
  %135 = shl i32 %134, 3
  %136 = add i32 8, %135
  %137 = load i32, ptr %18, align 4
  %138 = add i32 %137, %136
  store i32 %138, ptr %18, align 4
  br label %139

139:                                              ; preds = %129, %126
  br label %140

140:                                              ; preds = %139, %110
  br label %141

141:                                              ; preds = %140, %100
  %142 = load ptr, ptr %9, align 8
  %143 = load ptr, ptr %10, align 8
  %144 = load ptr, ptr %8, align 8
  %145 = load i32, ptr %19, align 4
  %146 = ashr i32 %145, 3
  %147 = load i32, ptr %18, align 4
  %148 = load i32, ptr %19, align 4
  %149 = sub i32 %147, %148
  %150 = ashr i32 %149, 3
  %151 = call ptr (ptr, ptr, ptr, ptr, i32, i32, ptr, ...) @proto_tree_add_expert_format(ptr noundef %142, ptr noundef %143, ptr noundef @ei_gsm_a_rr_data_not_dissected, ptr noundef %144, i32 noundef %146, i32 noundef %150, ptr noundef @.str.1826)
  br label %152

152:                                              ; preds = %141, %91
  %153 = load ptr, ptr %8, align 8
  %154 = load ptr, ptr %9, align 8
  %155 = load i16, ptr %21, align 2
  %156 = zext i16 %155 to i32
  %157 = load i32, ptr %18, align 4
  %158 = add i32 %157, 1
  store i32 %158, ptr %18, align 4
  %159 = load i32, ptr @hf_gsm_a_rr_packet_page_indication_1, align 4
  %160 = call zeroext i1 @gsm_rr_csn_HL_flag(ptr noundef %153, ptr noundef %154, i32 noundef %156, i32 noundef %157, i32 noundef %159)
  %161 = load ptr, ptr %8, align 8
  %162 = load ptr, ptr %9, align 8
  %163 = load i16, ptr %21, align 2
  %164 = zext i16 %163 to i32
  %165 = load i32, ptr %18, align 4
  %166 = add i32 %165, 1
  store i32 %166, ptr %18, align 4
  %167 = load i32, ptr @hf_gsm_a_rr_packet_page_indication_2, align 4
  %168 = call zeroext i1 @gsm_rr_csn_HL_flag(ptr noundef %161, ptr noundef %162, i32 noundef %164, i32 noundef %165, i32 noundef %167)
  %169 = load ptr, ptr %9, align 8
  %170 = load ptr, ptr %8, align 8
  %171 = load i32, ptr %18, align 4
  %172 = trunc i32 %171 to i16
  %173 = load i8, ptr %20, align 1
  call void @gsm_rr_padding_bits(ptr noundef %169, ptr noundef %170, i16 noundef zeroext %172, i8 noundef zeroext %173, i8 noundef zeroext 43)
  %174 = load i8, ptr %20, align 1
  %175 = zext i8 %174 to i32
  %176 = load i32, ptr %11, align 4
  %177 = sub i32 %175, %176
  %178 = trunc i32 %177 to i16
  call void @llvm.lifetime.end.p0(i64 2, ptr %21) #11
  call void @llvm.lifetime.end.p0(i64 1, ptr %20) #11
  call void @llvm.lifetime.end.p0(i64 4, ptr %19) #11
  call void @llvm.lifetime.end.p0(i64 4, ptr %18) #11
  call void @llvm.lifetime.end.p0(i64 4, ptr %17) #11
  call void @llvm.lifetime.end.p0(i64 4, ptr %16) #11
  call void @llvm.lifetime.end.p0(i64 8, ptr %15) #11
  ret i16 %178
}