; Function Attrs: null_pointer_is_valid sspstrong uwtable
define internal zeroext i16 @de_rr_p1_rest_oct(ptr noundef %0, ptr noundef %1, ptr noundef %2, i32 noundef %3, i32 %4, ptr readnone captures(none) %5, i32 %6) #3 {
  %8 = tail call i32 @tvb_reported_length(ptr noundef %0)
  %9 = and i32 %8, 255
  %10 = shl nuw nsw i32 %9, 3
  %11 = shl i32 %3, 3
  %12 = or disjoint i32 %11, 1
  %13 = load i32, ptr @hf_gsm_a_rr_nln_pch_present, align 4
  %14 = tail call fastcc zeroext i1 @gsm_rr_csn_HL_flag(ptr noundef %0, ptr noundef %1, i32 noundef %10, i32 noundef %11, i32 noundef %13)
  br i1 %14, label %15, label %22

15:                                               ; preds = %7
  %16 = load i32, ptr @hf_gsm_a_rr_nln_pch, align 4
  %17 = tail call ptr @proto_tree_add_bits_item(ptr noundef %1, i32 noundef %16, ptr noundef %0, i32 noundef %12, i32 noundef 2, i32 noundef 0)
  %18 = or disjoint i32 %11, 3
  %19 = load i32, ptr @hf_gsm_a_rr_nln_status_pch, align 4
  %20 = tail call ptr @proto_tree_add_bits_item(ptr noundef %1, i32 noundef %19, ptr noundef %0, i32 noundef %18, i32 noundef 1, i32 noundef 0)
  %21 = or disjoint i32 %11, 4
  br label %22

22:                                               ; preds = %15, %7
  %.0 = phi i32 [ %21, %15 ], [ %12, %7 ]
  %23 = add nuw i32 %.0, 1
  %24 = load i32, ptr @hf_gsm_a_call_prio1, align 4
  %25 = tail call fastcc zeroext i1 @gsm_rr_csn_HL_flag(ptr noundef %0, ptr noundef %1, i32 noundef %10, i32 noundef %.0, i32 noundef %24)
  br i1 %25, label %26, label %30

26:                                               ; preds = %22
  %27 = load i32, ptr @hf_gsm_a_call_prio, align 4
  %28 = tail call ptr @proto_tree_add_bits_item(ptr noundef %1, i32 noundef %27, ptr noundef %0, i32 noundef %23, i32 noundef 3, i32 noundef 0)
  %29 = add i32 %.0, 4
  tail call void (ptr, ptr, ...) @proto_item_append_text(ptr noundef %28, ptr noundef nonnull @.str.1824)
  br label %30

30:                                               ; preds = %26, %22
  %.1 = phi i32 [ %29, %26 ], [ %23, %22 ]
  %31 = add i32 %.1, 1
  %32 = load i32, ptr @hf_gsm_a_call_prio2, align 4
  %33 = tail call fastcc zeroext i1 @gsm_rr_csn_HL_flag(ptr noundef %0, ptr noundef %1, i32 noundef %10, i32 noundef %.1, i32 noundef %32)
  br i1 %33, label %34, label %38

34:                                               ; preds = %30
  %35 = load i32, ptr @hf_gsm_a_call_prio, align 4
  %36 = tail call ptr @proto_tree_add_bits_item(ptr noundef %1, i32 noundef %35, ptr noundef %0, i32 noundef %31, i32 noundef 3, i32 noundef 0)
  %37 = add i32 %.1, 4
  tail call void (ptr, ptr, ...) @proto_item_append_text(ptr noundef %36, ptr noundef nonnull @.str.1825)
  br label %38

38:                                               ; preds = %34, %30
  %.2 = phi i32 [ %37, %34 ], [ %31, %30 ]
  %39 = add i32 %.2, 1
  %40 = load i32, ptr @hf_gsm_a_rr_group_call_information, align 4
  %41 = tail call fastcc zeroext i1 @gsm_rr_csn_HL_flag(ptr noundef %0, ptr noundef %1, i32 noundef %10, i32 noundef %.2, i32 noundef %40)
  br i1 %41, label %42, label %87

42:                                               ; preds = %38
  %43 = add i32 %.2, 37
  %44 = add i32 %.2, 38
  %45 = load i32, ptr @hf_gsm_a_rr_group_channel_description, align 4
  %46 = and i32 %43, 7
  %47 = lshr exact i32 128, %46
  %48 = ashr i32 %43, 3
  %49 = tail call zeroext i8 @tvb_get_uint8(ptr noundef %0, i32 noundef %48)
  %50 = tail call ptr @proto_tree_add_bits_item(ptr noundef %1, i32 noundef %45, ptr noundef %0, i32 noundef %43, i32 noundef 1, i32 noundef 0)
  %51 = zext i8 %49 to i32
  %52 = and i32 %47, %51
  %.not = icmp eq i32 %52, 0
  br i1 %.not, label %82, label %53

53:                                               ; preds = %42
  %54 = add i32 %.2, 62
  %55 = add i32 %.2, 63
  %56 = load i32, ptr @hf_gsm_a_rr_hopping_case, align 4
  %57 = and i32 %54, 7
  %58 = lshr exact i32 128, %57
  %59 = ashr i32 %54, 3
  %60 = tail call zeroext i8 @tvb_get_uint8(ptr noundef %0, i32 noundef %59)
  %61 = tail call ptr @proto_tree_add_bits_item(ptr noundef %1, i32 noundef %56, ptr noundef %0, i32 noundef %54, i32 noundef 1, i32 noundef 0)
  %62 = zext i8 %60 to i32
  %63 = and i32 %58, %62
  %.not74 = icmp eq i32 %63, 0
  br i1 %.not74, label %82, label %64

64:                                               ; preds = %53
  %65 = load i32, ptr @hf_gsm_a_rr_hopping_flag, align 4
  %66 = and i32 %55, 7
  %67 = lshr exact i32 128, %66
  %68 = ashr i32 %55, 3
  %69 = tail call zeroext i8 @tvb_get_uint8(ptr noundef %0, i32 noundef %68)
  %70 = tail call ptr @proto_tree_add_bits_item(ptr noundef %1, i32 noundef %65, ptr noundef %0, i32 noundef %55, i32 noundef 1, i32 noundef 0)
  %71 = zext i8 %69 to i32
  %72 = and i32 %67, %71
  %.not75 = icmp eq i32 %72, 0
  br i1 %.not75, label %75, label %73

73:                                               ; preds = %64
  %74 = add i32 %.2, 128
  br label %82

75:                                               ; preds = %64
  %76 = add i32 %.2, 64
  %77 = tail call zeroext i8 @tvb_get_bits8(ptr noundef %0, i32 noundef %76, i32 noundef 8)
  %78 = zext i8 %77 to i32
  %79 = shl nuw nsw i32 %78, 3
  %80 = add i32 %.2, 72
  %81 = add i32 %80, %79
  br label %82

82:                                               ; preds = %53, %75, %73, %42
  %.4 = phi i32 [ %74, %73 ], [ %81, %75 ], [ %55, %53 ], [ %44, %42 ]
  %83 = ashr i32 %39, 3
  %84 = sub i32 %.4, %39
  %85 = ashr i32 %84, 3
  %86 = tail call ptr (ptr, ptr, ptr, ptr, i32, i32, ptr, ...) @proto_tree_add_expert_format(ptr noundef %1, ptr noundef %2, ptr noundef nonnull @ei_gsm_a_rr_data_not_dissected, ptr noundef %0, i32 noundef %83, i32 noundef %85, ptr noundef nonnull @.str.1826)
  br label %87

87:                                               ; preds = %82, %38
  %.3 = phi i32 [ %.4, %82 ], [ %39, %38 ]
  %88 = trunc i32 %8 to i8
  %89 = add i32 %.3, 1
  %90 = load i32, ptr @hf_gsm_a_rr_packet_page_indication_1, align 4
  %91 = tail call fastcc zeroext i1 @gsm_rr_csn_HL_flag(ptr noundef %0, ptr noundef %1, i32 noundef %10, i32 noundef %.3, i32 noundef %90)
  %92 = load i32, ptr @hf_gsm_a_rr_packet_page_indication_2, align 4
  %93 = tail call fastcc zeroext i1 @gsm_rr_csn_HL_flag(ptr noundef %0, ptr noundef %1, i32 noundef %10, i32 noundef %89, i32 noundef %92)
  %94 = trunc i32 %.3 to i16
  %95 = add i16 %94, 2
  tail call fastcc void @gsm_rr_padding_bits(ptr noundef %1, ptr noundef %0, i16 noundef zeroext %95, i8 noundef zeroext %88, i8 noundef zeroext 43)
  %96 = sub i32 %9, %3
  %97 = trunc i32 %96 to i16
  ret i16 %97
}